target datalayout = "e-m:e-p270:32:32-p271:32:32-p272:64:64-i64:64-i128:128-f80:128-n8:16:32:64-S128"
target triple = "x86_64-unknown-linux-gnu"

%"class.QuantLib::CumulativeGammaDistribution" = type { double }
%"class.QuantLib::CumulativeChiSquareDistribution" = type { double }

; Function Attrs: mustprogress uwtable
define noundef double @_ZNK8QuantLib31CumulativeChiSquareDistributionclEd(ptr noundef nonnull align 8 dereferenceable(8) %this, double noundef %x) #0 align 2 {
entry:
  %this.addr = alloca ptr, align 8
  %x.addr = alloca double, align 8
  %ref.tmp = alloca %"class.QuantLib::CumulativeGammaDistribution", align 8
  store ptr %this, ptr %this.addr, align 8, !tbaa !3
  store double %x, ptr %x.addr, align 8, !tbaa !7
  %this1 = load ptr, ptr %this.addr, align 8
  call void @llvm.lifetime.start.p0(i64 8, ptr %ref.tmp) #13
  %df_ = getelementptr inbounds nuw %"class.QuantLib::CumulativeChiSquareDistribution", ptr %this1, i32 0, i32 0
  %0 = load double, ptr %df_, align 8, !tbaa !9
  %mul = fmul double 5.000000e-01, %0
  call void @_ZN8QuantLib27CumulativeGammaDistributionC2Ed(ptr noundef nonnull align 8 dereferenceable(8) %ref.tmp, double noundef %mul)
  %1 = load double, ptr %x.addr, align 8, !tbaa !7
  %mul2 = fmul double 5.000000e-01, %1
  %call = call noundef double @_ZNK8QuantLib27CumulativeGammaDistributionclEd(ptr noundef nonnull align 8 dereferenceable(8) %ref.tmp, double noundef %mul2)
  call void @llvm.lifetime.end.p0(i64 8, ptr %ref.tmp) #13
  ret double %call
}