; Function Attrs: mustprogress uwtable
define noundef double @_ZNK8QuantLib31CumulativeChiSquareDistributionclEd(ptr nocapture noundef nonnull readonly align 8 dereferenceable(8) %this, double noundef %x) local_unnamed_addr #0 align 2 {
entry:
  %ref.tmp = alloca %"class.QuantLib::CumulativeGammaDistribution", align 8
  call void @llvm.lifetime.start.p0(i64 8, ptr nonnull %ref.tmp) #17
  %0 = load double, ptr %this, align 8, !tbaa !3
  %mul = fmul double %0, 5.000000e-01
  call void @_ZN8QuantLib27CumulativeGammaDistributionC2Ed(ptr noundef nonnull align 8 dereferenceable(8) %ref.tmp, double noundef %mul)
  %mul2 = fmul double %x, 5.000000e-01
  %call = call noundef double @_ZNK8QuantLib27CumulativeGammaDistributionclEd(ptr noundef nonnull align 8 dereferenceable(8) %ref.tmp, double noundef %mul2)
  call void @llvm.lifetime.end.p0(i64 8, ptr nonnull %ref.tmp) #17
  ret double %call
}